; Function Attrs: null_pointer_is_valid sspstrong uwtable
define hidden i32 @samr_dissect_struct_DomInfo13(ptr noundef %0, i32 noundef %1, ptr noundef %2, ptr noundef %3, ptr noundef %4, ptr noundef %5, i32 noundef %6, i32 %7) local_unnamed_addr #0 {
  %9 = getelementptr inbounds nuw i8, ptr %4, i64 25
  %10 = load i8, ptr %9, align 1, !range !6, !noundef !7
  %11 = trunc nuw i8 %10 to i1
  %12 = and i32 %1, 7
  %.not = icmp eq i32 %12, 0
  %or.cond = or i1 %.not, %11
  %13 = and i32 %1, -8
  %14 = add i32 %13, 8
  %.0 = select i1 %or.cond, i32 %1, i32 %14
  %.not38 = icmp eq ptr %3, null
  br i1 %.not38, label %19, label %15

15:                                               ; preds = %8
  %16 = tail call ptr @proto_tree_add_item(ptr noundef nonnull %3, i32 noundef %6, ptr noundef %0, i32 noundef %.0, i32 noundef -1, i32 noundef 0)
  %17 = load i32, ptr @ett_samr_samr_DomInfo13, align 4
  %18 = tail call ptr @proto_item_add_subtree(ptr noundef %16, i32 noundef %17)
  br label %19

19:                                               ; preds = %15, %8
  %.036 = phi ptr [ %16, %15 ], [ null, %8 ]
  %.035 = phi ptr [ %18, %15 ], [ null, %8 ]
  %20 = load i32, ptr @hf_samr_samr_DomInfo13_sequence_num, align 4
  %21 = tail call i32 @dissect_ndr_uint64(ptr noundef %0, i32 noundef %.0, ptr noundef %2, ptr noundef %.035, ptr noundef %4, ptr noundef %5, i32 noundef %20, ptr noundef null)
  %22 = load i32, ptr @hf_samr_samr_DomInfo13_domain_create_time, align 4
  %23 = tail call i32 @dissect_ndr_nt_NTTIME(ptr noundef %0, i32 noundef %21, ptr noundef %2, ptr noundef %.035, ptr noundef %4, ptr noundef %5, i32 noundef %22)
  %24 = load i32, ptr @hf_samr_samr_DomInfo13_modified_count_at_last_promotion, align 4
  %25 = tail call i32 @dissect_ndr_uint64(ptr noundef %0, i32 noundef %23, ptr noundef %2, ptr noundef %.035, ptr noundef %4, ptr noundef %5, i32 noundef %24, ptr noundef null)
  %26 = sub i32 %25, %.0
  tail call void @proto_item_set_len(ptr noundef %.036, i32 noundef %26)
  %27 = getelementptr inbounds nuw i8, ptr %4, i64 64
  %28 = load ptr, ptr %27, align 8
  %29 = getelementptr inbounds nuw i8, ptr %28, i64 96
  %30 = load i32, ptr %29, align 8
  %31 = and i32 %30, 1
  %.not39 = icmp eq i32 %31, 0
  br i1 %.not39, label %39, label %32

32:                                               ; preds = %19
  %33 = load i8, ptr %9, align 1, !range !6, !noundef !7
  %34 = trunc nuw i8 %33 to i1
  %35 = and i32 %25, 7
  %.not40 = icmp eq i32 %35, 0
  %or.cond41 = or i1 %.not40, %34
  br i1 %or.cond41, label %39, label %36

36:                                               ; preds = %32
  %37 = and i32 %25, -8
  %38 = add i32 %37, 8
  br label %39

39:                                               ; preds = %32, %36, %19
  %.1 = phi i32 [ %25, %32 ], [ %38, %36 ], [ %25, %19 ]
  ret i32 %.1
}